target datalayout = "e-m:e-p270:32:32-p271:32:32-p272:64:64-i64:64-i128:128-f80:128-n8:16:32:64-S128"
target triple = "x86_64-pc-linux-gnu"

@.str = private unnamed_addr constant [32 x i8] c"../openssl/crypto/x509/v3_lib.c\00", align 1
@__func__.X509V3_add1_i2d = private unnamed_addr constant [16 x i8] c"X509V3_add1_i2d\00", align 1

; Function Attrs: inlinehint nounwind uwtable
define internal ptr @ossl_check_X509_EXTENSION_type(ptr noundef %0) #2 {
  %2 = alloca ptr, align 8
  store ptr %0, ptr %2, align 8, !tbaa !17
  %3 = load ptr, ptr %2, align 8, !tbaa !17
  ret ptr %3
}

; Function Attrs: inlinehint nounwind uwtable
define internal ptr @ossl_check_const_X509_EXTENSION_sk_type(ptr noundef %0) #2 {
  %2 = alloca ptr, align 8
  store ptr %0, ptr %2, align 8, !tbaa !29
  %3 = load ptr, ptr %2, align 8, !tbaa !29
  ret ptr %3
}

; Function Attrs: inlinehint nounwind uwtable
define internal ptr @ossl_check_X509_EXTENSION_sk_type(ptr noundef %0) #2 {
  %2 = alloca ptr, align 8
  store ptr %0, ptr %2, align 8, !tbaa !29
  %3 = load ptr, ptr %2, align 8, !tbaa !29
  ret ptr %3
}

; Function Attrs: nounwind uwtable
define i32 @X509V3_add1_i2d(ptr noundef %0, i32 noundef %1, ptr noundef %2, i32 noundef %3, i64 noundef %4) #0 {
  %6 = alloca i32, align 4
  %7 = alloca ptr, align 8
  %8 = alloca i32, align 4
  %9 = alloca ptr, align 8
  %10 = alloca i32, align 4
  %11 = alloca i64, align 8
  %12 = alloca i32, align 4
  %13 = alloca i32, align 4
  %14 = alloca ptr, align 8
  %15 = alloca ptr, align 8
  %16 = alloca ptr, align 8
  %17 = alloca i64, align 8
  %18 = alloca i32, align 4
  store ptr %0, ptr %7, align 8, !tbaa !34
  store i32 %1, ptr %8, align 4, !tbaa !16
  store ptr %2, ptr %9, align 8, !tbaa !10
  store i32 %3, ptr %10, align 4, !tbaa !16
  store i64 %4, ptr %11, align 8, !tbaa !36
  call void @llvm.lifetime.start.p0(i64 4, ptr %12) #5
  call void @llvm.lifetime.start.p0(i64 4, ptr %13) #5
  store i32 -1, ptr %13, align 4, !tbaa !16
  call void @llvm.lifetime.start.p0(i64 8, ptr %14) #5
  store ptr null, ptr %14, align 8, !tbaa !17
  call void @llvm.lifetime.start.p0(i64 8, ptr %15) #5
  call void @llvm.lifetime.start.p0(i64 8, ptr %16) #5
  store ptr null, ptr %16, align 8, !tbaa !29
  call void @llvm.lifetime.start.p0(i64 8, ptr %17) #5
  %19 = load i64, ptr %11, align 8, !tbaa !36
  %20 = and i64 %19, 15
  store i64 %20, ptr %17, align 8, !tbaa !36
  %21 = load i64, ptr %17, align 8, !tbaa !36
  %22 = icmp ne i64 %21, 1
  br i1 %22, label %23, label %28

23:                                               ; preds = %5
  %24 = load ptr, ptr %7, align 8, !tbaa !34
  %25 = load ptr, ptr %24, align 8, !tbaa !29
  %26 = load i32, ptr %8, align 4, !tbaa !16
  %27 = call i32 @X509v3_get_ext_by_NID(ptr noundef %25, i32 noundef %26, i32 noundef -1)
  store i32 %27, ptr %13, align 4, !tbaa !16
  br label %28

28:                                               ; preds = %23, %5
  %29 = load i32, ptr %13, align 4, !tbaa !16
  %30 = icmp sge i32 %29, 0
  br i1 %30, label %31, label %54

31:                                               ; preds = %28
  %32 = load i64, ptr %17, align 8, !tbaa !36
  %33 = icmp eq i64 %32, 4
  br i1 %33, label %34, label %35

34:                                               ; preds = %31
  store i32 1, ptr %6, align 4
  store i32 1, ptr %18, align 4
  br label %128

35:                                               ; preds = %31
  %36 = load i64, ptr %17, align 8, !tbaa !36
  %37 = icmp eq i64 %36, 0
  br i1 %37, label %38, label %39

38:                                               ; preds = %35
  store i32 145, ptr %12, align 4, !tbaa !16
  br label %121

39:                                               ; preds = %35
  %40 = load i64, ptr %17, align 8, !tbaa !36
  %41 = icmp eq i64 %40, 5
  br i1 %41, label %42, label %53

42:                                               ; preds = %39
  %43 = load ptr, ptr %7, align 8, !tbaa !34
  %44 = load ptr, ptr %43, align 8, !tbaa !29
  %45 = call ptr @ossl_check_X509_EXTENSION_sk_type(ptr noundef %44)
  %46 = load i32, ptr %13, align 4, !tbaa !16
  %47 = call ptr @OPENSSL_sk_delete(ptr noundef %45, i32 noundef %46)
  store ptr %47, ptr %15, align 8, !tbaa !17
  %48 = load ptr, ptr %15, align 8, !tbaa !17
  %49 = icmp eq ptr %48, null
  br i1 %49, label %50, label %51

50:                                               ; preds = %42
  store i32 -1, ptr %6, align 4
  store i32 1, ptr %18, align 4
  br label %128

51:                                               ; preds = %42
  %52 = load ptr, ptr %15, align 8, !tbaa !17
  call void @X509_EXTENSION_free(ptr noundef %52)
  store i32 1, ptr %6, align 4
  store i32 1, ptr %18, align 4
  br label %128

53:                                               ; preds = %39
  br label %62

54:                                               ; preds = %28
  %55 = load i64, ptr %17, align 8, !tbaa !36
  %56 = icmp eq i64 %55, 3
  br i1 %56, label %60, label %57

57:                                               ; preds = %54
  %58 = load i64, ptr %17, align 8, !tbaa !36
  %59 = icmp eq i64 %58, 5
  br i1 %59, label %60, label %61

60:                                               ; preds = %57, %54
  store i32 102, ptr %12, align 4, !tbaa !16
  br label %121

61:                                               ; preds = %57
  br label %62

62:                                               ; preds = %61, %53
  %63 = load i32, ptr %8, align 4, !tbaa !16
  %64 = load i32, ptr %10, align 4, !tbaa !16
  %65 = load ptr, ptr %9, align 8, !tbaa !10
  %66 = call ptr @X509V3_EXT_i2d(i32 noundef %63, i32 noundef %64, ptr noundef %65)
  store ptr %66, ptr %14, align 8, !tbaa !17
  %67 = load ptr, ptr %14, align 8, !tbaa !17
  %68 = icmp ne ptr %67, null
  br i1 %68, label %70, label %69

69:                                               ; preds = %62
  call void @ERR_new()
  call void @ERR_set_debug(ptr noundef @.str, i32 noundef 271, ptr noundef @__func__.X509V3_add1_i2d)
  call void (i32, i32, ptr, ...) @ERR_set_error(i32 noundef 34, i32 noundef 144, ptr noundef null)
  store i32 0, ptr %6, align 4
  store i32 1, ptr %18, align 4
  br label %128

70:                                               ; preds = %62
  %71 = load i32, ptr %13, align 4, !tbaa !16
  %72 = icmp sge i32 %71, 0
  br i1 %72, label %73, label %90

73:                                               ; preds = %70
  %74 = load ptr, ptr %7, align 8, !tbaa !34
  %75 = load ptr, ptr %74, align 8, !tbaa !29
  %76 = call ptr @ossl_check_const_X509_EXTENSION_sk_type(ptr noundef %75)
  %77 = load i32, ptr %13, align 4, !tbaa !16
  %78 = call ptr @OPENSSL_sk_value(ptr noundef %76, i32 noundef %77)
  store ptr %78, ptr %15, align 8, !tbaa !17
  %79 = load ptr, ptr %15, align 8, !tbaa !17
  call void @X509_EXTENSION_free(ptr noundef %79)
  %80 = load ptr, ptr %7, align 8, !tbaa !34
  %81 = load ptr, ptr %80, align 8, !tbaa !29
  %82 = call ptr @ossl_check_X509_EXTENSION_sk_type(ptr noundef %81)
  %83 = load i32, ptr %13, align 4, !tbaa !16
  %84 = load ptr, ptr %14, align 8, !tbaa !17
  %85 = call ptr @ossl_check_X509_EXTENSION_type(ptr noundef %84)
  %86 = call ptr @OPENSSL_sk_set(ptr noundef %82, i32 noundef %83, ptr noundef %85)
  %87 = icmp ne ptr %86, null
  br i1 %87, label %89, label %88

88:                                               ; preds = %73
  store i32 -1, ptr %6, align 4
  store i32 1, ptr %18, align 4
  br label %128

89:                                               ; preds = %73
  store i32 1, ptr %6, align 4
  store i32 1, ptr %18, align 4
  br label %128

90:                                               ; preds = %70
  %91 = load ptr, ptr %7, align 8, !tbaa !34
  %92 = load ptr, ptr %91, align 8, !tbaa !29
  store ptr %92, ptr %16, align 8, !tbaa !29
  %93 = load ptr, ptr %7, align 8, !tbaa !34
  %94 = load ptr, ptr %93, align 8, !tbaa !29
  %95 = icmp eq ptr %94, null
  br i1 %95, label %96, label %100

96:                                               ; preds = %90
  %97 = call ptr @OPENSSL_sk_new_null()
  store ptr %97, ptr %16, align 8, !tbaa !29
  %98 = icmp eq ptr %97, null
  br i1 %98, label %99, label %100

99:                                               ; preds = %96
  br label %111

100:                                              ; preds = %96, %90
  %101 = load ptr, ptr %16, align 8, !tbaa !29
  %102 = call ptr @ossl_check_X509_EXTENSION_sk_type(ptr noundef %101)
  %103 = load ptr, ptr %14, align 8, !tbaa !17
  %104 = call ptr @ossl_check_X509_EXTENSION_type(ptr noundef %103)
  %105 = call i32 @OPENSSL_sk_push(ptr noundef %102, ptr noundef %104)
  %106 = icmp ne i32 %105, 0
  br i1 %106, label %108, label %107

107:                                              ; preds = %100
  br label %111

108:                                              ; preds = %100
  %109 = load ptr, ptr %16, align 8, !tbaa !29
  %110 = load ptr, ptr %7, align 8, !tbaa !34
  store ptr %109, ptr %110, align 8, !tbaa !29
  store i32 1, ptr %6, align 4
  store i32 1, ptr %18, align 4
  br label %128

111:                                              ; preds = %107, %99
  %112 = load ptr, ptr %16, align 8, !tbaa !29
  %113 = load ptr, ptr %7, align 8, !tbaa !34
  %114 = load ptr, ptr %113, align 8, !tbaa !29
  %115 = icmp ne ptr %112, %114
  br i1 %115, label %116, label %119

116:                                              ; preds = %111
  %117 = load ptr, ptr %16, align 8, !tbaa !29
  %118 = call ptr @ossl_check_X509_EXTENSION_sk_type(ptr noundef %117)
  call void @OPENSSL_sk_free(ptr noundef %118)
  br label %119

119:                                              ; preds = %116, %111
  %120 = load ptr, ptr %14, align 8, !tbaa !17
  call void @X509_EXTENSION_free(ptr noundef %120)
  store i32 -1, ptr %6, align 4
  store i32 1, ptr %18, align 4
  br label %128

121:                                              ; preds = %60, %38
  %122 = load i64, ptr %11, align 8, !tbaa !36
  %123 = and i64 %122, 16
  %124 = icmp ne i64 %123, 0
  br i1 %124, label %127, label %125

125:                                              ; preds = %121
  call void @ERR_new()
  call void @ERR_set_debug(ptr noundef @.str, i32 noundef 303, ptr noundef @__func__.X509V3_add1_i2d)
  %126 = load i32, ptr %12, align 4, !tbaa !16
  call void (i32, i32, ptr, ...) @ERR_set_error(i32 noundef 34, i32 noundef %126, ptr noundef null)
  br label %127

127:                                              ; preds = %125, %121
  store i32 0, ptr %6, align 4
  store i32 1, ptr %18, align 4
  br label %128

128:                                              ; preds = %127, %119, %108, %89, %88, %69, %51, %50, %34
  call void @llvm.lifetime.end.p0(i64 8, ptr %17) #5
  call void @llvm.lifetime.end.p0(i64 8, ptr %16) #5
  call void @llvm.lifetime.end.p0(i64 8, ptr %15) #5
  call void @llvm.lifetime.end.p0(i64 8, ptr %14) #5
  call void @llvm.lifetime.end.p0(i64 4, ptr %13) #5
  call void @llvm.lifetime.end.p0(i64 4, ptr %12) #5
  %129 = load i32, ptr %6, align 4
  ret i32 %129
}