; Function Attrs: nounwind uwtable
define range(i32 -1, 2) i32 @X509V3_add1_i2d(ptr noundef captures(none) %0, i32 noundef %1, ptr noundef %2, i32 noundef %3, i64 noundef %4) local_unnamed_addr #0 {
  %6 = and i64 %4, 15
  %.not = icmp eq i64 %6, 1
  br i1 %.not, label %.thread57, label %7

7:                                                ; preds = %5
  %8 = load ptr, ptr %0, align 8, !tbaa !24
  %9 = tail call i32 @X509v3_get_ext_by_NID(ptr noundef %8, i32 noundef %1, i32 noundef -1) #7
  %10 = icmp sgt i32 %9, -1
  br i1 %10, label %11, label %17

11:                                               ; preds = %7
  switch i64 %6, label %18 [
    i64 4, label %44
    i64 0, label %41
    i64 5, label %12
  ]

12:                                               ; preds = %11
  %13 = load ptr, ptr %0, align 8, !tbaa !24
  %14 = tail call ptr @OPENSSL_sk_delete(ptr noundef %13, i32 noundef %9) #7
  %15 = icmp eq ptr %14, null
  br i1 %15, label %44, label %16

16:                                               ; preds = %12
  tail call void @X509_EXTENSION_free(ptr noundef nonnull %14) #7
  br label %44

17:                                               ; preds = %7
  switch i64 %6, label %.thread [
    i64 5, label %41
    i64 3, label %41
  ]

18:                                               ; preds = %11
  %19 = tail call ptr @X509V3_EXT_i2d(i32 noundef %1, i32 noundef %3, ptr noundef %2) #7
  %.not47 = icmp eq ptr %19, null
  br i1 %.not47, label %22, label %23

.thread:                                          ; preds = %17
  %20 = tail call ptr @X509V3_EXT_i2d(i32 noundef %1, i32 noundef %3, ptr noundef %2) #7
  %.not4763 = icmp eq ptr %20, null
  br i1 %.not4763, label %22, label %.thread61

.thread57:                                        ; preds = %5
  %21 = tail call ptr @X509V3_EXT_i2d(i32 noundef %1, i32 noundef %3, ptr noundef %2) #7
  %.not4759 = icmp eq ptr %21, null
  br i1 %.not4759, label %22, label %.thread61

22:                                               ; preds = %.thread, %.thread57, %18
  tail call void @ERR_new() #7
  tail call void @ERR_set_debug(ptr noundef nonnull @.str, i32 noundef 271, ptr noundef nonnull @__func__.X509V3_add1_i2d) #7
  tail call void (i32, i32, ptr, ...) @ERR_set_error(i32 noundef 34, i32 noundef 144, ptr noundef null) #7
  br label %44

23:                                               ; preds = %18
  %24 = load ptr, ptr %0, align 8, !tbaa !24
  %25 = tail call ptr @OPENSSL_sk_value(ptr noundef %24, i32 noundef %9) #7
  tail call void @X509_EXTENSION_free(ptr noundef %25) #7
  %26 = load ptr, ptr %0, align 8, !tbaa !24
  %27 = tail call ptr @OPENSSL_sk_set(ptr noundef %26, i32 noundef %9, ptr noundef nonnull %19) #7
  %.not50 = icmp eq ptr %27, null
  %. = select i1 %.not50, i32 -1, i32 1
  br label %44

.thread61:                                        ; preds = %.thread, %.thread57
  %28 = phi ptr [ %21, %.thread57 ], [ %20, %.thread ]
  %29 = load ptr, ptr %0, align 8, !tbaa !24
  %30 = icmp eq ptr %29, null
  br i1 %30, label %31, label %34

31:                                               ; preds = %.thread61
  %32 = tail call ptr @OPENSSL_sk_new_null() #7
  %33 = icmp eq ptr %32, null
  br i1 %33, label %37, label %34

34:                                               ; preds = %31, %.thread61
  %.038 = phi ptr [ %32, %31 ], [ %29, %.thread61 ]
  %35 = tail call i32 @OPENSSL_sk_push(ptr noundef nonnull %.038, ptr noundef nonnull %28) #7
  %.not48 = icmp eq i32 %35, 0
  br i1 %.not48, label %37, label %36

36:                                               ; preds = %34
  store ptr %.038, ptr %0, align 8, !tbaa !24
  br label %44

37:                                               ; preds = %34, %31
  %.1 = phi ptr [ null, %31 ], [ %.038, %34 ]
  %38 = load ptr, ptr %0, align 8, !tbaa !24
  %.not49 = icmp eq ptr %.1, %38
  br i1 %.not49, label %40, label %39

39:                                               ; preds = %37
  tail call void @OPENSSL_sk_free(ptr noundef %.1) #7
  br label %40

40:                                               ; preds = %39, %37
  tail call void @X509_EXTENSION_free(ptr noundef nonnull %28) #7
  br label %44

41:                                               ; preds = %17, %17, %11
  %.040 = phi i32 [ 145, %11 ], [ 102, %17 ], [ 102, %17 ]
  %42 = and i64 %4, 16
  %.not51 = icmp eq i64 %42, 0
  br i1 %.not51, label %43, label %44

43:                                               ; preds = %41
  tail call void @ERR_new() #7
  tail call void @ERR_set_debug(ptr noundef nonnull @.str, i32 noundef 303, ptr noundef nonnull @__func__.X509V3_add1_i2d) #7
  tail call void (i32, i32, ptr, ...) @ERR_set_error(i32 noundef 34, i32 noundef %.040, ptr noundef null) #7
  br label %44

44:                                               ; preds = %41, %43, %23, %12, %11, %40, %36, %22, %16
  %.0 = phi i32 [ 1, %16 ], [ -1, %40 ], [ 1, %36 ], [ 0, %22 ], [ 1, %11 ], [ -1, %12 ], [ %., %23 ], [ 0, %43 ], [ 0, %41 ]
  ret i32 %.0
}